; Function Attrs: mustprogress uwtable
define hidden void @_ZN2bv6solver18mk_new_diseq_axiomEiij(ptr noundef nonnull align 8 dereferenceable(640) %this, i32 noundef %v1, i32 noundef %v2, i32 %idx) local_unnamed_addr #3 align 2 personality ptr @__gxx_personality_v0 {
entry:
  %eq = alloca %class.obj_ref, align 8
  %m_stats = getelementptr inbounds i8, ptr %this, i64 168
  %0 = load i32, ptr %m_stats, align 8
  %inc = add i32 %0, 1
  store i32 %inc, ptr %m_stats, align 8
  %m = getelementptr inbounds i8, ptr %this, i64 72
  %1 = load ptr, ptr %m, align 8
  %m_var2enode.i.i = getelementptr inbounds i8, ptr %this, i64 88
  %2 = load ptr, ptr %m_var2enode.i.i, align 8
  %idxprom.i.i.i = zext i32 %v1 to i64
  %arrayidx.i.i.i = getelementptr inbounds ptr, ptr %2, i64 %idxprom.i.i.i
  %3 = load ptr, ptr %arrayidx.i.i.i, align 8
  %4 = load ptr, ptr %3, align 8
  %idxprom.i.i.i2 = zext i32 %v2 to i64
  %arrayidx.i.i.i3 = getelementptr inbounds ptr, ptr %2, i64 %idxprom.i.i.i2
  %5 = load ptr, ptr %arrayidx.i.i.i3, align 8
  %6 = load ptr, ptr %5, align 8
  %call2.i = tail call noundef ptr @_ZN11ast_manager6mk_appEiiP4exprS1_(ptr noundef nonnull align 8 dereferenceable(976) %1, i32 noundef 0, i32 noundef 2, ptr noundef %4, ptr noundef %6)
  %7 = load ptr, ptr %m, align 8
  store ptr %call2.i, ptr %eq, align 8
  %m_manager.i = getelementptr inbounds i8, ptr %eq, i64 8
  store ptr %7, ptr %m_manager.i, align 8
  %tobool.not.i.i = icmp eq ptr %call2.i, null
  br i1 %tobool.not.i.i, label %_ZN7obj_refI4expr11ast_managerEC2EPS0_RS1_.exit, label %_ZN11ast_manager7inc_refEP3ast.exit.i.i

_ZN11ast_manager7inc_refEP3ast.exit.i.i:          ; preds = %entry
  %m_ref_count.i.i.i.i = getelementptr inbounds i8, ptr %call2.i, i64 8
  %8 = load i32, ptr %m_ref_count.i.i.i.i, align 4
  %inc.i.i.i.i = add i32 %8, 1
  store i32 %inc.i.i.i.i, ptr %m_ref_count.i.i.i.i, align 4
  br label %_ZN7obj_refI4expr11ast_managerEC2EPS0_RS1_.exit

_ZN7obj_refI4expr11ast_managerEC2EPS0_RS1_.exit:  ; preds = %entry, %_ZN11ast_manager7inc_refEP3ast.exit.i.i
  %ctx = getelementptr inbounds i8, ptr %this, i64 80
  %9 = load ptr, ptr %ctx, align 8
  %vtable = load ptr, ptr %9, align 8
  %vfn = getelementptr inbounds i8, ptr %vtable, i64 432
  %10 = load ptr, ptr %vfn, align 8
  %call8 = invoke i32 %10(ptr noundef nonnull align 8 dereferenceable(9136) %9, ptr noundef %call2.i, i1 noundef zeroext false, i1 noundef zeroext false)
          to label %invoke.cont7 unwind label %lpad

invoke.cont7:                                     ; preds = %_ZN7obj_refI4expr11ast_managerEC2EPS0_RS1_.exit
  %xor.i = xor i32 %call8, 1
  %call15 = invoke noundef zeroext i1 @_ZN3euf13th_euf_solver8add_unitEN3sat7literalEPKNS_13th_proof_hintE(ptr noundef nonnull align 8 dereferenceable(108) %this, i32 %xor.i, ptr noundef null)
          to label %invoke.cont14 unwind label %lpad

invoke.cont14:                                    ; preds = %invoke.cont7
  br i1 %tobool.not.i.i, label %_ZN7obj_refI4expr11ast_managerED2Ev.exit, label %if.then.i.i.i

if.then.i.i.i:                                    ; preds = %invoke.cont14
  %m_ref_count.i.i.i.i5 = getelementptr inbounds i8, ptr %call2.i, i64 8
  %11 = load i32, ptr %m_ref_count.i.i.i.i5, align 4
  %dec.i.i.i.i = add i32 %11, -1
  store i32 %dec.i.i.i.i, ptr %m_ref_count.i.i.i.i5, align 4
  %cmp.i.i.i = icmp eq i32 %dec.i.i.i.i, 0
  br i1 %cmp.i.i.i, label %if.then2.i.i.i, label %_ZN7obj_refI4expr11ast_managerED2Ev.exit

if.then2.i.i.i:                                   ; preds = %if.then.i.i.i
  invoke void @_ZN11ast_manager11delete_nodeEP3ast(ptr noundef nonnull align 8 dereferenceable(976) %7, ptr noundef nonnull %call2.i)
          to label %_ZN7obj_refI4expr11ast_managerED2Ev.exit unwind label %terminate.lpad.i

terminate.lpad.i:                                 ; preds = %if.then2.i.i.i
  %12 = landingpad { ptr, i32 }
          catch ptr null
  %13 = extractvalue { ptr, i32 } %12, 0
  tail call void @__clang_call_terminate(ptr %13) #23
  unreachable

_ZN7obj_refI4expr11ast_managerED2Ev.exit:         ; preds = %invoke.cont14, %if.then.i.i.i, %if.then2.i.i.i
  ret void

lpad:                                             ; preds = %invoke.cont7, %_ZN7obj_refI4expr11ast_managerEC2EPS0_RS1_.exit
  %14 = landingpad { ptr, i32 }
          cleanup
  call void @_ZN7obj_refI4expr11ast_managerED2Ev(ptr noundef nonnull align 8 dereferenceable(16) %eq) #22
  resume { ptr, i32 } %14
}